; Function Attrs: mustprogress nounwind uwtable
define dso_local noundef zeroext i1 @_ZN4llvm18isLibFuncEmittableEPKNS_6ModuleEPKNS_17TargetLibraryInfoENS_7LibFuncE(ptr noundef %0, ptr noundef nonnull %1, i32 noundef %2) local_unnamed_addr #0 {
  %4 = tail call { ptr, i64 } @_ZNK4llvm17TargetLibraryInfo7getNameENS_7LibFuncE(ptr noundef nonnull align 8 dereferenceable(72) %1, i32 noundef %2)
  %5 = getelementptr inbounds nuw i8, ptr %1, i64 8
  %6 = zext i32 %2 to i64
  %7 = lshr i64 %6, 6
  %8 = getelementptr inbounds [8 x i64], ptr %5, i64 0, i64 %7
  %9 = load i64, ptr %8, align 8
  %10 = and i64 %6, 63
  %11 = shl nuw i64 1, %10
  %12 = and i64 %9, %11
  %.not.i.i = icmp eq i64 %12, 0
  br i1 %.not.i.i, label %_ZNK4llvm17TargetLibraryInfo3hasENS_7LibFuncE.exit, label %_ZNK4llvm17TargetLibraryInfo3hasENS_7LibFuncE.exit.thread

_ZNK4llvm17TargetLibraryInfo3hasENS_7LibFuncE.exit: ; preds = %3
  %13 = load ptr, ptr %1, align 8
  %14 = lshr i32 %2, 2
  %15 = zext nneg i32 %14 to i64
  %16 = getelementptr inbounds [126 x i8], ptr %13, i64 0, i64 %15
  %17 = load i8, ptr %16, align 1
  %18 = zext i8 %17 to i32
  %19 = shl i32 %2, 1
  %20 = and i32 %19, 6
  %21 = shl nuw nsw i32 3, %20
  %22 = and i32 %21, %18
  %.not18 = icmp eq i32 %22, 0
  br i1 %.not18, label %_ZNK4llvm17TargetLibraryInfo3hasENS_7LibFuncE.exit.thread, label %23

23:                                               ; preds = %_ZNK4llvm17TargetLibraryInfo3hasENS_7LibFuncE.exit
  %24 = extractvalue { ptr, i64 } %4, 1
  %25 = extractvalue { ptr, i64 } %4, 0
  %26 = tail call noundef ptr @_ZNK4llvm6Module13getNamedValueENS_9StringRefE(ptr noundef nonnull align 8 dereferenceable(857) %0, ptr %25, i64 %24) #7
  %.not = icmp eq ptr %26, null
  br i1 %.not, label %_ZNK4llvm17TargetLibraryInfo3hasENS_7LibFuncE.exit.thread, label %27

27:                                               ; preds = %23
  %28 = load i8, ptr %26, align 8
  %.not20 = icmp eq i8 %28, 0
  br i1 %.not20, label %29, label %_ZNK4llvm17TargetLibraryInfo3hasENS_7LibFuncE.exit.thread

29:                                               ; preds = %27
  %30 = getelementptr inbounds nuw i8, ptr %26, i64 24
  %31 = load ptr, ptr %30, align 8
  %32 = load ptr, ptr %1, align 8
  %33 = tail call noundef zeroext i1 @_ZNK4llvm21TargetLibraryInfoImpl22isValidProtoForLibFuncERKNS_12FunctionTypeENS_7LibFuncERKNS_6ModuleE(ptr noundef nonnull align 8 dereferenceable(208) %32, ptr noundef nonnull align 8 dereferenceable(24) %31, i32 noundef %2, ptr noundef nonnull align 8 dereferenceable(857) %0) #7
  br label %_ZNK4llvm17TargetLibraryInfo3hasENS_7LibFuncE.exit.thread

_ZNK4llvm17TargetLibraryInfo3hasENS_7LibFuncE.exit.thread: ; preds = %3, %23, %27, %_ZNK4llvm17TargetLibraryInfo3hasENS_7LibFuncE.exit, %29
  %.0 = phi i1 [ %33, %29 ], [ false, %_ZNK4llvm17TargetLibraryInfo3hasENS_7LibFuncE.exit ], [ false, %27 ], [ true, %23 ], [ false, %3 ]
  ret i1 %.0
}